; ModuleID = '10/1457.c'
source_filename = "10/1457.c"
target datalayout = "e-m:e-p270:32:32-p271:32:32-p272:64:64-i64:64-f80:128-n8:16:32:64-S128"
target triple = "x86_64-pc-linux-gnu"

@.str = private unnamed_addr constant [3 x i8] c"%d\00", align 1
@.str.1 = private unnamed_addr constant [4 x i8] c"%d\0A\00", align 1

; Function Attrs: noinline nounwind uwtable
define dso_local i32 @main() #0 {
  %1 = alloca i32, align 4
  %2 = alloca i32, align 4
  %3 = alloca i32, align 4
  %4 = alloca i32, align 4
  %5 = alloca i32*, align 8
  %6 = alloca i32, align 4
  %7 = alloca i32, align 4
  %8 = alloca i32*, align 8
  store i32 0, i32* %1, align 4
  store i32 0, i32* %7, align 4
  %9 = call i32 (i8*, ...) @__isoc99_scanf(i8* getelementptr inbounds ([3 x i8], [3 x i8]* @.str, i64 0, i64 0), i32* %2)
  %10 = load i32, i32* %2, align 4
  %11 = sext i32 %10 to i64
  %12 = mul i64 4, %11
  %13 = call noalias i8* @malloc(i64 %12) #3
  %14 = bitcast i8* %13 to i32*
  store i32* %14, i32** %8, align 8
  %15 = load i32, i32* %2, align 4
  %16 = sext i32 %15 to i64
  %17 = mul i64 4, %16
  %18 = call noalias i8* @malloc(i64 %17) #3
  %19 = bitcast i8* %18 to i32*
  store i32* %19, i32** %5, align 8
  store i32 0, i32* %3, align 4
  br label %20

20:                                               ; preds = %34, %0
  %21 = load i32, i32* %3, align 4
  %22 = load i32, i32* %2, align 4
  %23 = icmp slt i32 %21, %22
  br i1 %23, label %24, label %37

24:                                               ; preds = %20
  %25 = load i32*, i32** %8, align 8
  %26 = load i32, i32* %3, align 4
  %27 = sext i32 %26 to i64
  %28 = getelementptr inbounds i32, i32* %25, i64 %27
  %29 = call i32 (i8*, ...) @__isoc99_scanf(i8* getelementptr inbounds ([3 x i8], [3 x i8]* @.str, i64 0, i64 0), i32* %28)
  %30 = load i32*, i32** %5, align 8
  %31 = load i32, i32* %3, align 4
  %32 = sext i32 %31 to i64
  %33 = getelementptr inbounds i32, i32* %30, i64 %32
  store i32 0, i32* %33, align 4
  br label %34

34:                                               ; preds = %24
  %35 = load i32, i32* %3, align 4
  %36 = add nsw i32 %35, 1
  store i32 %36, i32* %3, align 4
  br label %20

37:                                               ; preds = %20
  %38 = load i32, i32* %2, align 4
  %39 = sub nsw i32 %38, 1
  store i32 %39, i32* %3, align 4
  br label %40

40:                                               ; preds = %101, %37
  %41 = load i32, i32* %3, align 4
  %42 = icmp sgt i32 %41, -1
  br i1 %42, label %43, label %104

43:                                               ; preds = %40
  store i32 0, i32* %6, align 4
  %44 = load i32, i32* %2, align 4
  %45 = sub nsw i32 %44, 1
  store i32 %45, i32* %4, align 4
  br label %46

46:                                               ; preds = %77, %43
  %47 = load i32, i32* %4, align 4
  %48 = load i32, i32* %3, align 4
  %49 = icmp sgt i32 %47, %48
  br i1 %49, label %50, label %80

50:                                               ; preds = %46
  %51 = load i32*, i32** %8, align 8
  %52 = load i32, i32* %4, align 4
  %53 = sext i32 %52 to i64
  %54 = getelementptr inbounds i32, i32* %51, i64 %53
  %55 = load i32, i32* %54, align 4
  %56 = load i32*, i32** %8, align 8
  %57 = load i32, i32* %3, align 4
  %58 = sext i32 %57 to i64
  %59 = getelementptr inbounds i32, i32* %56, i64 %58
  %60 = load i32, i32* %59, align 4
  %61 = icmp sle i32 %55, %60
  br i1 %61, label %62, label %76

62:                                               ; preds = %50
  %63 = load i32*, i32** %5, align 8
  %64 = load i32, i32* %4, align 4
  %65 = sext i32 %64 to i64
  %66 = getelementptr inbounds i32, i32* %63, i64 %65
  %67 = load i32, i32* %66, align 4
  %68 = load i32, i32* %6, align 4
  %69 = icmp sge i32 %67, %68
  br i1 %69, label %70, label %76

70:                                               ; preds = %62
  %71 = load i32*, i32** %5, align 8
  %72 = load i32, i32* %4, align 4
  %73 = sext i32 %72 to i64
  %74 = getelementptr inbounds i32, i32* %71, i64 %73
  %75 = load i32, i32* %74, align 4
  store i32 %75, i32* %6, align 4
  br label %76

76:                                               ; preds = %70, %62, %50
  br label %77

77:                                               ; preds = %76
  %78 = load i32, i32* %4, align 4
  %79 = add nsw i32 %78, -1
  store i32 %79, i32* %4, align 4
  br label %46

80:                                               ; preds = %46
  %81 = load i32, i32* %6, align 4
  %82 = add nsw i32 %81, 1
  %83 = load i32*, i32** %5, align 8
  %84 = load i32, i32* %3, align 4
  %85 = sext i32 %84 to i64
  %86 = getelementptr inbounds i32, i32* %83, i64 %85
  store i32 %82, i32* %86, align 4
  %87 = load i32*, i32** %5, align 8
  %88 = load i32, i32* %3, align 4
  %89 = sext i32 %88 to i64
  %90 = getelementptr inbounds i32, i32* %87, i64 %89
  %91 = load i32, i32* %90, align 4
  %92 = load i32, i32* %7, align 4
  %93 = icmp sgt i32 %91, %92
  br i1 %93, label %94, label %100

94:                                               ; preds = %80
  %95 = load i32*, i32** %5, align 8
  %96 = load i32, i32* %3, align 4
  %97 = sext i32 %96 to i64
  %98 = getelementptr inbounds i32, i32* %95, i64 %97
  %99 = load i32, i32* %98, align 4
  store i32 %99, i32* %7, align 4
  br label %100

100:                                              ; preds = %94, %80
  br label %101

101:                                              ; preds = %100
  %102 = load i32, i32* %3, align 4
  %103 = add nsw i32 %102, -1
  store i32 %103, i32* %3, align 4
  br label %40

104:                                              ; preds = %40
  %105 = load i32, i32* %7, align 4
  %106 = call i32 (i8*, ...) @printf(i8* getelementptr inbounds ([4 x i8], [4 x i8]* @.str.1, i64 0, i64 0), i32 %105)
  %107 = load i32, i32* %1, align 4
  ret i32 %107
}

declare dso_local i32 @__isoc99_scanf(i8*, ...) #1

; Function Attrs: nounwind
declare dso_local noalias i8* @malloc(i64) #2

declare dso_local i32 @printf(i8*, ...) #1


!llvm.module.flags = !{!0}
!llvm.ident = !{!1}

!0 = !{i32 1, !"wchar_size", i32 4}
!1 = !{!"clang version 10.0.0-4ubuntu1 "}
